target datalayout = "e-m:e-p270:32:32-p271:32:32-p272:64:64-i64:64-i128:128-f80:128-n8:16:32:64-S128"
target triple = "x86_64-pc-linux-gnu"

%struct._zend_llist = type { ptr, ptr, i64, i64, ptr, i8, ptr }
%struct._zend_llist_element = type { ptr, ptr, [1 x i8] }

; Function Attrs: nounwind uwtable
define ptr @zend_llist_get_prev_ex(ptr noundef %0, ptr noundef %1) #0 {
  %3 = alloca ptr, align 8
  %4 = alloca ptr, align 8
  %5 = alloca ptr, align 8
  %6 = alloca ptr, align 8
  store ptr %0, ptr %4, align 8
  store ptr %1, ptr %5, align 8
  %7 = load ptr, ptr %5, align 8
  %8 = icmp ne ptr %7, null
  br i1 %8, label %9, label %11

9:                                                ; preds = %2
  %10 = load ptr, ptr %5, align 8
  br label %14

11:                                               ; preds = %2
  %12 = load ptr, ptr %4, align 8
  %13 = getelementptr inbounds %struct._zend_llist, ptr %12, i32 0, i32 6
  br label %14

14:                                               ; preds = %11, %9
  %15 = phi ptr [ %10, %9 ], [ %13, %11 ]
  store ptr %15, ptr %6, align 8
  %16 = load ptr, ptr %6, align 8
  %17 = load ptr, ptr %16, align 8
  %18 = icmp ne ptr %17, null
  br i1 %18, label %19, label %34

19:                                               ; preds = %14
  %20 = load ptr, ptr %6, align 8
  %21 = load ptr, ptr %20, align 8
  %22 = getelementptr inbounds %struct._zend_llist_element, ptr %21, i32 0, i32 1
  %23 = load ptr, ptr %22, align 8
  %24 = load ptr, ptr %6, align 8
  store ptr %23, ptr %24, align 8
  %25 = load ptr, ptr %6, align 8
  %26 = load ptr, ptr %25, align 8
  %27 = icmp ne ptr %26, null
  br i1 %27, label %28, label %33

28:                                               ; preds = %19
  %29 = load ptr, ptr %6, align 8
  %30 = load ptr, ptr %29, align 8
  %31 = getelementptr inbounds %struct._zend_llist_element, ptr %30, i32 0, i32 2
  %32 = getelementptr inbounds [1 x i8], ptr %31, i64 0, i64 0
  store ptr %32, ptr %3, align 8
  br label %35

33:                                               ; preds = %19
  br label %34

34:                                               ; preds = %33, %14
  store ptr null, ptr %3, align 8
  br label %35

35:                                               ; preds = %34, %28
  %36 = load ptr, ptr %3, align 8
  ret ptr %36
}