; Function Attrs: mustprogress nofree norecurse nosync nounwind willreturn memory(readwrite, inaccessiblemem: none) uwtable
define ptr @zend_llist_get_prev_ex(ptr nocapture noundef %0, ptr noundef %1) local_unnamed_addr #10 {
  %.not = icmp eq ptr %1, null
  %3 = getelementptr inbounds i8, ptr %0, i64 48
  %4 = select i1 %.not, ptr %3, ptr %1
  %5 = load ptr, ptr %4, align 8
  %.not11 = icmp eq ptr %5, null
  br i1 %.not11, label %10, label %6

6:                                                ; preds = %2
  %7 = getelementptr inbounds i8, ptr %5, i64 8
  %8 = load ptr, ptr %7, align 8
  store ptr %8, ptr %4, align 8
  %.not12 = icmp eq ptr %8, null
  %9 = getelementptr inbounds i8, ptr %8, i64 16
  %spec.select = select i1 %.not12, ptr null, ptr %9
  br label %10

10:                                               ; preds = %6, %2
  %.0 = phi ptr [ null, %2 ], [ %spec.select, %6 ]
  ret ptr %.0
}